; Function Attrs: nounwind uwtable
define internal ptr @sizeof_func(ptr noundef readonly captures(none) %0, ptr noundef %1) #0 {
  %3 = getelementptr i8, ptr %0, i64 32
  %.val = load ptr, ptr %3, align 8, !tbaa !56
  %4 = getelementptr inbounds nuw i8, ptr %.val, i64 40
  %5 = load ptr, ptr %4, align 8, !tbaa !21
  %6 = tail call i32 @PyObject_IsInstance(ptr noundef %1, ptr noundef %5) #10
  %.not.i.i = icmp eq i32 %6, 0
  br i1 %.not.i.i, label %14, label %7

7:                                                ; preds = %2
  %8 = load ptr, ptr %4, align 8, !tbaa !21
  %9 = tail call ptr @PyObject_GetTypeData(ptr noundef %1, ptr noundef %8) #10
  %10 = load i32, ptr %9, align 8, !tbaa !22
  %.not8.i.i = icmp eq i32 %10, 0
  br i1 %.not8.i.i, label %14, label %PyStgInfo_FromType.exit

PyStgInfo_FromType.exit:                          ; preds = %7
  %11 = getelementptr inbounds nuw i8, ptr %9, i64 8
  %12 = load i64, ptr %11, align 8, !tbaa !45
  %13 = tail call ptr @PyLong_FromSsize_t(i64 noundef %12) #10
  br label %24

14:                                               ; preds = %2, %7
  %15 = getelementptr inbounds nuw i8, ptr %.val, i64 96
  %16 = load ptr, ptr %15, align 8, !tbaa !75
  %17 = getelementptr i8, ptr %1, i64 8
  %.val9 = load ptr, ptr %17, align 8, !tbaa !30
  %.not.i = icmp eq ptr %.val9, %16
  br i1 %.not.i, label %PyObject_TypeCheck.exit.thread, label %PyObject_TypeCheck.exit

PyObject_TypeCheck.exit:                          ; preds = %14
  %18 = tail call i32 @PyType_IsSubtype(ptr noundef %.val9, ptr noundef %16) #10
  %.not = icmp eq i32 %18, 0
  br i1 %.not, label %22, label %PyObject_TypeCheck.exit.thread

PyObject_TypeCheck.exit.thread:                   ; preds = %14, %PyObject_TypeCheck.exit
  %19 = getelementptr inbounds nuw i8, ptr %1, i64 40
  %20 = load i64, ptr %19, align 8, !tbaa !71
  %21 = tail call ptr @PyLong_FromSsize_t(i64 noundef %20) #10
  br label %24

22:                                               ; preds = %PyObject_TypeCheck.exit
  %23 = load ptr, ptr @PyExc_TypeError, align 8, !tbaa !3
  tail call void @PyErr_SetString(ptr noundef %23, ptr noundef nonnull @.str.79) #10
  br label %24

24:                                               ; preds = %22, %PyObject_TypeCheck.exit.thread, %PyStgInfo_FromType.exit
  %.0 = phi ptr [ %13, %PyStgInfo_FromType.exit ], [ %21, %PyObject_TypeCheck.exit.thread ], [ null, %22 ]
  ret ptr %.0
}